; Function Attrs: mustprogress nofree norecurse nosync nounwind willreturn memory(read, inaccessiblemem: none) uwtable
define i64 @_ZNK3gmx8BiasGrid15lambdaAxisIndexEv(ptr nocapture noundef nonnull readonly align 8 dereferenceable(48) %0) local_unnamed_addr #0 align 2 personality ptr @__gxx_personality_v0 {
  %2 = getelementptr inbounds i8, ptr %0, i64 24
  %3 = getelementptr inbounds i8, ptr %0, i64 32
  %4 = load ptr, ptr %3, align 8
  %5 = load ptr, ptr %2, align 8
  %.not = icmp eq ptr %4, %5
  br i1 %.not, label %.loopexit, label %.lr.ph.preheader

.lr.ph.preheader:                                 ; preds = %1
  %6 = ptrtoint ptr %4 to i64
  %7 = ptrtoint ptr %5 to i64
  %8 = sub i64 %6, %7
  %9 = sdiv exact i64 %8, 48
  %umax = tail call i64 @llvm.umax.i64(i64 %9, i64 1)
  br label %.lr.ph

.lr.ph:                                           ; preds = %.lr.ph.preheader, %15
  %storemerge4 = phi i64 [ %16, %15 ], [ 0, %.lr.ph.preheader ]
  %10 = getelementptr inbounds %"class.gmx::GridAxis", ptr %5, i64 %storemerge4, i32 6
  %11 = load i8, ptr %10, align 8
  %12 = trunc i8 %11 to i1
  br i1 %12, label %13, label %15

13:                                               ; preds = %.lr.ph
  %14 = and i64 %storemerge4, 4294967295
  br label %.loopexit

15:                                               ; preds = %.lr.ph
  %16 = add nuw i64 %storemerge4, 1
  %exitcond.not = icmp eq i64 %16, %umax
  br i1 %exitcond.not, label %.loopexit, label %.lr.ph, !llvm.loop !19

.loopexit:                                        ; preds = %15, %1, %13
  %.sroa.0.0 = phi i64 [ %14, %13 ], [ 0, %1 ], [ 0, %15 ]
  %.sroa.2.0 = phi i64 [ 4294967296, %13 ], [ 0, %1 ], [ 0, %15 ]
  %.sroa.0.0.insert.insert = or disjoint i64 %.sroa.2.0, %.sroa.0.0
  ret i64 %.sroa.0.0.insert.insert
}